; Function Attrs: mustprogress uwtable
define hidden noundef ptr @_ZN5arith6solver6mk_subEP4exprS2_(ptr noundef nonnull align 8 dereferenceable(1144) %this, ptr noundef %x, ptr noundef %y) local_unnamed_addr #3 align 2 personality ptr @__gxx_personality_v0 {
entry:
  %is_int.i = alloca i8, align 1
  %r = alloca %class.rational, align 8
  store i32 0, ptr %r, align 8
  %m_kind.i.i.i = getelementptr inbounds i8, ptr %r, i64 4
  store i8 0, ptr %m_kind.i.i.i, align 4
  %m_ptr.i.i.i = getelementptr inbounds i8, ptr %r, i64 8
  store ptr null, ptr %m_ptr.i.i.i, align 8
  %m_den.i.i = getelementptr inbounds i8, ptr %r, i64 16
  store i32 1, ptr %m_den.i.i, align 8
  %m_kind.i1.i.i = getelementptr inbounds i8, ptr %r, i64 20
  store i8 0, ptr %m_kind.i1.i.i, align 4
  %m_ptr.i4.i.i = getelementptr inbounds i8, ptr %r, i64 24
  store ptr null, ptr %m_ptr.i4.i.i, align 8
  %a = getelementptr inbounds i8, ptr %this, i64 928
  call void @llvm.lifetime.start.p0(i64 1, ptr nonnull %is_int.i)
  %call.i3 = invoke noundef zeroext i1 @_ZNK10arith_util10is_numeralEPK4exprR8rationalRb(ptr noundef nonnull align 8 dereferenceable(16) %a, ptr noundef %y, ptr noundef nonnull align 8 dereferenceable(32) %r, ptr noundef nonnull align 1 dereferenceable(1) %is_int.i)
          to label %invoke.cont unwind label %lpad

invoke.cont:                                      ; preds = %entry
  call void @llvm.lifetime.end.p0(i64 1, ptr nonnull %is_int.i)
  br i1 %call.i3, label %land.lhs.true, label %if.end

land.lhs.true:                                    ; preds = %invoke.cont
  %call3 = invoke noundef zeroext i1 @_ZeqRK8rationali(ptr noundef nonnull align 8 dereferenceable(32) %r, i32 noundef 0)
          to label %invoke.cont2 unwind label %lpad

invoke.cont2:                                     ; preds = %land.lhs.true
  br i1 %call3, label %cleanup, label %if.end

lpad:                                             ; preds = %if.end, %entry, %land.lhs.true
  %0 = landingpad { ptr, i32 }
          cleanup
  call void @_ZN8rationalD2Ev(ptr noundef nonnull align 8 dereferenceable(32) %r) #18
  resume { ptr, i32 } %0

if.end:                                           ; preds = %invoke.cont2, %invoke.cont
  %1 = load ptr, ptr %a, align 8
  %call.i4 = invoke noundef ptr @_ZN11ast_manager6mk_appEiiP4exprS1_(ptr noundef nonnull align 8 dereferenceable(976) %1, i32 noundef 5, i32 noundef 7, ptr noundef %x, ptr noundef %y)
          to label %cleanup unwind label %lpad

cleanup:                                          ; preds = %if.end, %invoke.cont2
  %retval.0 = phi ptr [ %x, %invoke.cont2 ], [ %call.i4, %if.end ]
  %2 = load ptr, ptr @_ZN8rational13g_mpq_managerE, align 8
  invoke void @_ZN11mpz_managerILb1EE3delEPS0_R3mpz(ptr noundef %2, ptr noundef nonnull align 8 dereferenceable(16) %r)
          to label %.noexc.i unwind label %terminate.lpad.i

.noexc.i:                                         ; preds = %cleanup
  invoke void @_ZN11mpz_managerILb1EE3delEPS0_R3mpz(ptr noundef %2, ptr noundef nonnull align 8 dereferenceable(16) %m_den.i.i)
          to label %_ZN8rationalD2Ev.exit unwind label %terminate.lpad.i

terminate.lpad.i:                                 ; preds = %.noexc.i, %cleanup
  %3 = landingpad { ptr, i32 }
          catch ptr null
  %4 = extractvalue { ptr, i32 } %3, 0
  call void @__clang_call_terminate(ptr %4) #17
  unreachable

_ZN8rationalD2Ev.exit:                            ; preds = %.noexc.i
  ret ptr %retval.0
}